target datalayout = "e-m:e-p270:32:32-p271:32:32-p272:64:64-i64:64-i128:128-f80:128-n8:16:32:64-S128"
target triple = "x86_64-pc-linux-gnu"

%struct.OSQPInfo = type { [32 x i8], i64, i64, double, double, double, i64, i64, double, double, double, double, double, double }

@OSQP_STATUS_MESSAGE = global [12 x ptr] [ptr @.str, ptr @.str.1, ptr @.str.2, ptr @.str.3, ptr @.str.4, ptr @.str.5, ptr @.str.6, ptr @.str.7, ptr @.str.8, ptr @.str.9, ptr @.str.10, ptr @.str.11], align 16

; Function Attrs: nounwind uwtable
define void @update_status(ptr noundef %0, i64 noundef %1) #0 {
  %3 = alloca ptr, align 8
  %4 = alloca i64, align 8
  store ptr %0, ptr %3, align 8
  store i64 %1, ptr %4, align 8
  %5 = load i64, ptr %4, align 8
  %6 = load ptr, ptr %3, align 8
  %7 = getelementptr inbounds %struct.OSQPInfo, ptr %6, i32 0, i32 1
  store i64 %5, ptr %7, align 8
  %8 = load ptr, ptr %3, align 8
  %9 = getelementptr inbounds %struct.OSQPInfo, ptr %8, i32 0, i32 0
  %10 = getelementptr inbounds [32 x i8], ptr %9, i64 0, i64 0
  %11 = load i64, ptr %4, align 8
  %12 = getelementptr inbounds [12 x ptr], ptr @OSQP_STATUS_MESSAGE, i64 0, i64 %11
  %13 = load ptr, ptr %12, align 8
  call void @c_strcpy(ptr noundef %10, ptr noundef %13)
  ret void
}

; Function Attrs: nounwind uwtable
define void @reset_info(ptr noundef %0) #0 {
  %2 = alloca ptr, align 8
  store ptr %0, ptr %2, align 8
  %3 = load ptr, ptr %2, align 8
  %4 = getelementptr inbounds %struct.OSQPInfo, ptr %3, i32 0, i32 10
  store double 0.000000e+00, ptr %4, align 8
  %5 = load ptr, ptr %2, align 8
  %6 = getelementptr inbounds %struct.OSQPInfo, ptr %5, i32 0, i32 12
  store double 0.000000e+00, ptr %6, align 8
  %7 = load ptr, ptr %2, align 8
  call void @update_status(ptr noundef %7, i64 noundef 11)
  %8 = load ptr, ptr %2, align 8
  %9 = getelementptr inbounds %struct.OSQPInfo, ptr %8, i32 0, i32 7
  store i64 0, ptr %9, align 8
  ret void
}