; Function Attrs: nounwind uwtable
define void @reset_info(ptr noundef initializes((32, 40), (104, 112), (120, 128)) %0) local_unnamed_addr #0 {
  %2 = getelementptr inbounds nuw i8, ptr %0, i64 104
  store double 0.000000e+00, ptr %2, align 8
  %3 = getelementptr inbounds nuw i8, ptr %0, i64 120
  store double 0.000000e+00, ptr %3, align 8
  %4 = getelementptr inbounds nuw i8, ptr %0, i64 32
  store i64 11, ptr %4, align 8
  %5 = load ptr, ptr getelementptr inbounds nuw (i8, ptr @OSQP_STATUS_MESSAGE, i64 88), align 8
  tail call void @c_strcpy(ptr noundef %0, ptr noundef %5) #9
  %6 = getelementptr inbounds nuw i8, ptr %0, i64 80
  store i64 0, ptr %6, align 8
  ret void
}